target datalayout = "e-m:e-p270:32:32-p271:32:32-p272:64:64-i64:64-i128:128-f80:128-n8:16:32:64-S128"
target triple = "x86_64-pc-linux-gnu"

; Function Attrs: nounwind uwtable
define hidden i64 @mbedtls_mpi_core_add(ptr noundef %0, ptr noundef %1, ptr noundef %2, i64 noundef %3) #0 {
  %5 = alloca ptr, align 8
  %6 = alloca ptr, align 8
  %7 = alloca ptr, align 8
  %8 = alloca i64, align 8
  %9 = alloca i64, align 8
  %10 = alloca i64, align 8
  %11 = alloca i64, align 8
  store ptr %0, ptr %5, align 8, !tbaa !7
  store ptr %1, ptr %6, align 8, !tbaa !7
  store ptr %2, ptr %7, align 8, !tbaa !7
  store i64 %3, ptr %8, align 8, !tbaa !3
  call void @llvm.lifetime.start.p0(i64 8, ptr %9) #7
  store i64 0, ptr %9, align 8, !tbaa !3
  call void @llvm.lifetime.start.p0(i64 8, ptr %10) #7
  store i64 0, ptr %10, align 8, !tbaa !3
  br label %12

12:                                               ; preds = %52, %4
  %13 = load i64, ptr %10, align 8, !tbaa !3
  %14 = load i64, ptr %8, align 8, !tbaa !3
  %15 = icmp ult i64 %13, %14
  br i1 %15, label %17, label %16

16:                                               ; preds = %12
  call void @llvm.lifetime.end.p0(i64 8, ptr %10) #7
  br label %55

17:                                               ; preds = %12
  call void @llvm.lifetime.start.p0(i64 8, ptr %11) #7
  %18 = load i64, ptr %9, align 8, !tbaa !3
  %19 = load ptr, ptr %6, align 8, !tbaa !7
  %20 = load i64, ptr %10, align 8, !tbaa !3
  %21 = getelementptr inbounds nuw i64, ptr %19, i64 %20
  %22 = load i64, ptr %21, align 8, !tbaa !3
  %23 = add i64 %18, %22
  store i64 %23, ptr %11, align 8, !tbaa !3
  %24 = load i64, ptr %11, align 8, !tbaa !3
  %25 = load ptr, ptr %6, align 8, !tbaa !7
  %26 = load i64, ptr %10, align 8, !tbaa !3
  %27 = getelementptr inbounds nuw i64, ptr %25, i64 %26
  %28 = load i64, ptr %27, align 8, !tbaa !3
  %29 = icmp ult i64 %24, %28
  %30 = zext i1 %29 to i32
  %31 = sext i32 %30 to i64
  store i64 %31, ptr %9, align 8, !tbaa !3
  %32 = load ptr, ptr %7, align 8, !tbaa !7
  %33 = load i64, ptr %10, align 8, !tbaa !3
  %34 = getelementptr inbounds nuw i64, ptr %32, i64 %33
  %35 = load i64, ptr %34, align 8, !tbaa !3
  %36 = load i64, ptr %11, align 8, !tbaa !3
  %37 = add i64 %36, %35
  store i64 %37, ptr %11, align 8, !tbaa !3
  %38 = load i64, ptr %11, align 8, !tbaa !3
  %39 = load ptr, ptr %7, align 8, !tbaa !7
  %40 = load i64, ptr %10, align 8, !tbaa !3
  %41 = getelementptr inbounds nuw i64, ptr %39, i64 %40
  %42 = load i64, ptr %41, align 8, !tbaa !3
  %43 = icmp ult i64 %38, %42
  %44 = zext i1 %43 to i32
  %45 = sext i32 %44 to i64
  %46 = load i64, ptr %9, align 8, !tbaa !3
  %47 = add i64 %46, %45
  store i64 %47, ptr %9, align 8, !tbaa !3
  %48 = load i64, ptr %11, align 8, !tbaa !3
  %49 = load ptr, ptr %5, align 8, !tbaa !7
  %50 = load i64, ptr %10, align 8, !tbaa !3
  %51 = getelementptr inbounds nuw i64, ptr %49, i64 %50
  store i64 %48, ptr %51, align 8, !tbaa !3
  call void @llvm.lifetime.end.p0(i64 8, ptr %11) #7
  br label %52

52:                                               ; preds = %17
  %53 = load i64, ptr %10, align 8, !tbaa !3
  %54 = add i64 %53, 1
  store i64 %54, ptr %10, align 8, !tbaa !3
  br label %12, !llvm.loop !36

55:                                               ; preds = %16
  %56 = load i64, ptr %9, align 8, !tbaa !3
  call void @llvm.lifetime.end.p0(i64 8, ptr %9) #7
  ret i64 %56
}